target datalayout = "e-m:e-p270:32:32-p271:32:32-p272:64:64-i64:64-i128:128-f80:128-n8:16:32:64-S128"
target triple = "x86_64-unknown-linux-gnu"

%struct.__sigset_t = type { [16 x i64] }
%struct.ucontext_t = type { i64, ptr, %struct.stack_t, %struct.mcontext_t, %struct.__sigset_t, %struct._libc_fpstate, [4 x i64] }
%struct.stack_t = type { ptr, i32, i64 }
%struct.mcontext_t = type { [23 x i64], ptr, [8 x i64] }
%struct._libc_fpstate = type { i16, i16, i16, i16, i64, i64, i32, i32, [8 x %struct._libc_fpxreg], [16 x %struct._libc_xmmreg], [24 x i32] }
%struct._libc_fpxreg = type { [4 x i16], i16, [3 x i16] }
%struct._libc_xmmreg = type { [4 x i32] }
%struct.siginfo_t = type { i32, i32, i32, i32, %union.anon.0 }
%union.anon.0 = type { %struct.anon.4, [80 x i8] }
%struct.anon.4 = type { i32, i32, i32, i64, i64 }
%struct.anon.1 = type { i32, i32 }

@.str.291 = private unnamed_addr constant [32 x i8] c"\0A--- WATCHDOG TIMER EXPIRED ---\00", align 1
@.str.292 = private unnamed_addr constant [18 x i8] c"\0AReceived SIGALRM\00", align 1
@.str.293 = private unnamed_addr constant [10 x i8] c"--------\0A\00", align 1

; Function Attrs: nounwind uwtable
define internal ptr @getAndSetMcontextEip(ptr noundef %uc, ptr noundef %eip) #0 {
entry:
  %uc.addr = alloca ptr, align 8
  %eip.addr = alloca ptr, align 8
  %old_val = alloca ptr, align 8
  %temp = alloca ptr, align 8
  store ptr %uc, ptr %uc.addr, align 8
  store ptr %eip, ptr %eip.addr, align 8
  br label %do.body

do.body:                                          ; preds = %entry
  %0 = load ptr, ptr %uc.addr, align 8
  %uc_mcontext = getelementptr inbounds %struct.ucontext_t, ptr %0, i32 0, i32 3
  %gregs = getelementptr inbounds %struct.mcontext_t, ptr %uc_mcontext, i32 0, i32 0
  %arrayidx = getelementptr inbounds [23 x i64], ptr %gregs, i64 0, i64 16
  %1 = load i64, ptr %arrayidx, align 8
  %2 = inttoptr i64 %1 to ptr
  store ptr %2, ptr %old_val, align 8
  %3 = load ptr, ptr %eip.addr, align 8
  %tobool = icmp ne ptr %3, null
  br i1 %tobool, label %if.then, label %if.end

if.then:                                          ; preds = %do.body
  %4 = load ptr, ptr %uc.addr, align 8
  %uc_mcontext1 = getelementptr inbounds %struct.ucontext_t, ptr %4, i32 0, i32 3
  %gregs2 = getelementptr inbounds %struct.mcontext_t, ptr %uc_mcontext1, i32 0, i32 0
  %arrayidx3 = getelementptr inbounds [23 x i64], ptr %gregs2, i64 0, i64 16
  store ptr %arrayidx3, ptr %temp, align 8
  %5 = load ptr, ptr %eip.addr, align 8
  %6 = load ptr, ptr %temp, align 8
  store ptr %5, ptr %6, align 8
  br label %if.end

if.end:                                           ; preds = %if.then, %do.body
  %7 = load ptr, ptr %old_val, align 8
  br label %do.end

do.end:                                           ; preds = %if.end
  ret ptr %7
}

; Function Attrs: nounwind uwtable
define dso_local void @sigalrmSignalHandler(i32 noundef %sig, ptr noundef %info, ptr noundef %secret) #0 {
entry:
  %sig.addr = alloca i32, align 4
  %info.addr = alloca ptr, align 8
  %secret.addr = alloca ptr, align 8
  %uc = alloca ptr, align 8
  store i32 %sig, ptr %sig.addr, align 4
  store ptr %info, ptr %info.addr, align 8
  store ptr %secret, ptr %secret.addr, align 8
  %0 = load ptr, ptr %secret.addr, align 8
  store ptr %0, ptr %uc, align 8
  %1 = load ptr, ptr %info.addr, align 8
  %_sifields = getelementptr inbounds %struct.siginfo_t, ptr %1, i32 0, i32 4
  %si_pid = getelementptr inbounds %struct.anon.1, ptr %_sifields, i32 0, i32 0
  %2 = load i32, ptr %si_pid, align 8
  %cmp = icmp eq i32 %2, 0
  br i1 %cmp, label %if.then, label %if.else

if.then:                                          ; preds = %entry
  call void @serverLogRawFromHandler(i32 noundef 3, ptr noundef @.str.291)
  br label %if.end

if.else:                                          ; preds = %entry
  call void @serverLogRawFromHandler(i32 noundef 3, ptr noundef @.str.292)
  br label %if.end

if.end:                                           ; preds = %if.else, %if.then
  %3 = load ptr, ptr %uc, align 8
  %call = call ptr @getAndSetMcontextEip(ptr noundef %3, ptr noundef null)
  call void @logStackTrace(ptr noundef %call, i32 noundef 1)
  call void @serverLogRawFromHandler(i32 noundef 3, ptr noundef @.str.293)
  ret void
}