; Function Attrs: nounwind uwtable
define dso_local void @sigalrmSignalHandler(i32 %sig, ptr nocapture noundef readonly %info, ptr nocapture noundef readonly %secret) #0 {
entry:
  %_sifields = getelementptr inbounds i8, ptr %info, i64 16
  %0 = load i32, ptr %_sifields, align 8
  %cmp = icmp eq i32 %0, 0
  %.str.291..str.292 = select i1 %cmp, ptr @.str.291, ptr @.str.292
  tail call void @serverLogRawFromHandler(i32 noundef 3, ptr noundef nonnull %.str.291..str.292) #22
  %arrayidx.i = getelementptr inbounds i8, ptr %secret, i64 168
  %1 = load i64, ptr %arrayidx.i, align 8
  %2 = inttoptr i64 %1 to ptr
  tail call void @logStackTrace(ptr noundef %2, i32 noundef 1)
  tail call void @serverLogRawFromHandler(i32 noundef 3, ptr noundef nonnull @.str.293) #22
  ret void
}